#include <math.h>
#include <stdio.h>
#include <stdlib.h>
#include <string.h>
#include <iostream>
using namespace std;


int main()
{
	char a[200][200];
	int i,j,n,flag;
	cin>>n;
	for(i=0;i<=n;i++)
	{
		cin.getline(a[i],200);
	}
	for(i=1;i<=n;i++)
	{
		flag=1;
		if(a[i][0]=='_'||a[i][0]<='Z'&&a[i][0]>='A'||a[i][0]<='z'&&a[i][0]>='a')
		{
			for(j=0;a[i][j]!='\0';j++)
			{
				if(a[i][j]!='_'&&(a[i][j]>'Z'||a[i][j]<'A')&&(a[i][j]>'z'||a[i][j]<'a')&&(a[i][j]>'9'||a[i][j]<'0'))
				{
					flag=0;
					break;
				}
			}
		}
		else
			flag=0;
		cout<<flag<<endl;
	}
	return 0;
}
